target datalayout = "e-m:e-p270:32:32-p271:32:32-p272:64:64-i64:64-i128:128-f80:128-n8:16:32:64-S128"
target triple = "x86_64-pc-linux-gnu"

%struct.PHP_MURMUR3C_CTX = type { [4 x i32], [4 x i32], i32 }

; Function Attrs: nounwind uwtable
define i32 @PHP_MURMUR3CCopy(ptr noundef %0, ptr noundef %1, ptr noundef %2) #0 {
  %4 = alloca ptr, align 8
  %5 = alloca ptr, align 8
  %6 = alloca ptr, align 8
  store ptr %0, ptr %4, align 8
  store ptr %1, ptr %5, align 8
  store ptr %2, ptr %6, align 8
  %7 = load ptr, ptr %6, align 8
  %8 = getelementptr inbounds %struct.PHP_MURMUR3C_CTX, ptr %7, i32 0, i32 0
  %9 = load ptr, ptr %5, align 8
  %10 = getelementptr inbounds %struct.PHP_MURMUR3C_CTX, ptr %9, i32 0, i32 0
  call void @llvm.memcpy.p0.p0.i64(ptr align 4 %8, ptr align 4 %10, i64 16, i1 false)
  %11 = load ptr, ptr %6, align 8
  %12 = getelementptr inbounds %struct.PHP_MURMUR3C_CTX, ptr %11, i32 0, i32 1
  %13 = load ptr, ptr %5, align 8
  %14 = getelementptr inbounds %struct.PHP_MURMUR3C_CTX, ptr %13, i32 0, i32 1
  call void @llvm.memcpy.p0.p0.i64(ptr align 4 %12, ptr align 4 %14, i64 16, i1 false)
  %15 = load ptr, ptr %5, align 8
  %16 = getelementptr inbounds %struct.PHP_MURMUR3C_CTX, ptr %15, i32 0, i32 2
  %17 = load i32, ptr %16, align 4
  %18 = load ptr, ptr %6, align 8
  %19 = getelementptr inbounds %struct.PHP_MURMUR3C_CTX, ptr %18, i32 0, i32 2
  store i32 %17, ptr %19, align 4
  ret i32 0
}