; Function Attrs: mustprogress nofree norecurse nosync nounwind willreturn memory(argmem: readwrite) uwtable
define noundef i32 @PHP_MURMUR3CCopy(ptr nocapture readnone %0, ptr nocapture noundef readonly %1, ptr nocapture noundef writeonly %2) #1 {
  tail call void @llvm.memcpy.p0.p0.i64(ptr noundef nonnull align 4 dereferenceable(16) %2, ptr noundef nonnull align 4 dereferenceable(16) %1, i64 16, i1 false)
  %4 = getelementptr inbounds i8, ptr %2, i64 16
  %5 = getelementptr inbounds i8, ptr %1, i64 16
  tail call void @llvm.memcpy.p0.p0.i64(ptr noundef nonnull align 4 dereferenceable(16) %4, ptr noundef nonnull align 4 dereferenceable(16) %5, i64 16, i1 false)
  %6 = getelementptr inbounds i8, ptr %1, i64 32
  %7 = load i32, ptr %6, align 4
  %8 = getelementptr inbounds i8, ptr %2, i64 32
  store i32 %7, ptr %8, align 4
  ret i32 0
}